target datalayout = "e-m:e-p270:32:32-p271:32:32-p272:64:64-i64:64-i128:128-f80:128-n8:16:32:64-S128"
target triple = "x86_64-pc-linux-gnu"

%struct.php_url = type { ptr, ptr, ptr, ptr, i16, ptr, ptr, ptr }
%struct._zend_string = type { %struct._zend_refcounted_h, i64, i64, [1 x i8] }
%struct._zend_refcounted_h = type { i32, %union.anon }
%union.anon = type { i32 }

@.str.39 = private unnamed_addr constant [2 x i8] c"r\00", align 1
@.str.46 = private unnamed_addr constant [24 x i8] c"Unable to connect to %s\00", align 1
@.str.49 = private unnamed_addr constant [10 x i8] c"RNFR %s\0D\0A\00", align 1
@.str.50 = private unnamed_addr constant [24 x i8] c"Error Renaming file: %s\00", align 1
@.str.51 = private unnamed_addr constant [10 x i8] c"RNTO %s\0D\0A\00", align 1

; Function Attrs: alwaysinline nounwind uwtable
define internal zeroext i1 @zend_string_equal_content(ptr noundef %0, ptr noundef %1) #7 {
  %3 = alloca ptr, align 8
  %4 = alloca ptr, align 8
  store ptr %0, ptr %3, align 8, !tbaa !26
  store ptr %1, ptr %4, align 8, !tbaa !26
  %5 = load ptr, ptr %3, align 8, !tbaa !26
  %6 = getelementptr inbounds nuw %struct._zend_string, ptr %5, i32 0, i32 2
  %7 = load i64, ptr %6, align 8, !tbaa !59
  %8 = load ptr, ptr %4, align 8, !tbaa !26
  %9 = getelementptr inbounds nuw %struct._zend_string, ptr %8, i32 0, i32 2
  %10 = load i64, ptr %9, align 8, !tbaa !59
  %11 = icmp eq i64 %7, %10
  br i1 %11, label %12, label %16

12:                                               ; preds = %2
  %13 = load ptr, ptr %3, align 8, !tbaa !26
  %14 = load ptr, ptr %4, align 8, !tbaa !26
  %15 = call zeroext i1 @zend_string_equal_val(ptr noundef %13, ptr noundef %14)
  br label %16

16:                                               ; preds = %12, %2
  %17 = phi i1 [ false, %2 ], [ %15, %12 ]
  ret i1 %17
}

; Function Attrs: alwaysinline nounwind uwtable
define internal zeroext i1 @zend_string_equals(ptr noundef %0, ptr noundef %1) #7 {
  %3 = alloca ptr, align 8
  %4 = alloca ptr, align 8
  store ptr %0, ptr %3, align 8, !tbaa !26
  store ptr %1, ptr %4, align 8, !tbaa !26
  %5 = load ptr, ptr %3, align 8, !tbaa !26
  %6 = load ptr, ptr %4, align 8, !tbaa !26
  %7 = icmp eq ptr %5, %6
  br i1 %7, label %12, label %8

8:                                                ; preds = %2
  %9 = load ptr, ptr %3, align 8, !tbaa !26
  %10 = load ptr, ptr %4, align 8, !tbaa !26
  %11 = call zeroext i1 @zend_string_equal_content(ptr noundef %9, ptr noundef %10)
  br label %12

12:                                               ; preds = %8, %2
  %13 = phi i1 [ true, %2 ], [ %11, %8 ]
  ret i1 %13
}

; Function Attrs: nounwind uwtable
define internal i32 @php_stream_ftp_rename(ptr noundef %0, ptr noundef %1, ptr noundef %2, i32 noundef %3, ptr noundef %4) #0 {
  %6 = alloca i32, align 4
  %7 = alloca ptr, align 8
  %8 = alloca ptr, align 8
  %9 = alloca ptr, align 8
  %10 = alloca i32, align 4
  %11 = alloca ptr, align 8
  %12 = alloca ptr, align 8
  %13 = alloca ptr, align 8
  %14 = alloca ptr, align 8
  %15 = alloca i32, align 4
  %16 = alloca [512 x i8], align 16
  %17 = alloca i32, align 4
  store ptr %0, ptr %7, align 8, !tbaa !4
  store ptr %1, ptr %8, align 8, !tbaa !9
  store ptr %2, ptr %9, align 8, !tbaa !9
  store i32 %3, ptr %10, align 4, !tbaa !11
  store ptr %4, ptr %11, align 8, !tbaa !15
  call void @llvm.lifetime.start.p0(i64 8, ptr %12) #11
  store ptr null, ptr %12, align 8, !tbaa !17
  call void @llvm.lifetime.start.p0(i64 8, ptr %13) #11
  store ptr null, ptr %13, align 8, !tbaa !19
  call void @llvm.lifetime.start.p0(i64 8, ptr %14) #11
  store ptr null, ptr %14, align 8, !tbaa !19
  call void @llvm.lifetime.start.p0(i64 4, ptr %15) #11
  call void @llvm.lifetime.start.p0(i64 512, ptr %16) #11
  %18 = load ptr, ptr %8, align 8, !tbaa !9
  %19 = call ptr @php_url_parse(ptr noundef %18)
  store ptr %19, ptr %13, align 8, !tbaa !19
  %20 = load ptr, ptr %9, align 8, !tbaa !9
  %21 = call ptr @php_url_parse(ptr noundef %20)
  store ptr %21, ptr %14, align 8, !tbaa !19
  %22 = load ptr, ptr %13, align 8, !tbaa !19
  %23 = icmp ne ptr %22, null
  br i1 %23, label %24, label %105

24:                                               ; preds = %5
  %25 = load ptr, ptr %14, align 8, !tbaa !19
  %26 = icmp ne ptr %25, null
  br i1 %26, label %27, label %105

27:                                               ; preds = %24
  %28 = load ptr, ptr %13, align 8, !tbaa !19
  %29 = getelementptr inbounds nuw %struct.php_url, ptr %28, i32 0, i32 0
  %30 = load ptr, ptr %29, align 8, !tbaa !58
  %31 = icmp ne ptr %30, null
  br i1 %31, label %32, label %105

32:                                               ; preds = %27
  %33 = load ptr, ptr %14, align 8, !tbaa !19
  %34 = getelementptr inbounds nuw %struct.php_url, ptr %33, i32 0, i32 0
  %35 = load ptr, ptr %34, align 8, !tbaa !58
  %36 = icmp ne ptr %35, null
  br i1 %36, label %37, label %105

37:                                               ; preds = %32
  %38 = load ptr, ptr %13, align 8, !tbaa !19
  %39 = getelementptr inbounds nuw %struct.php_url, ptr %38, i32 0, i32 0
  %40 = load ptr, ptr %39, align 8, !tbaa !58
  %41 = load ptr, ptr %14, align 8, !tbaa !19
  %42 = getelementptr inbounds nuw %struct.php_url, ptr %41, i32 0, i32 0
  %43 = load ptr, ptr %42, align 8, !tbaa !58
  %44 = call zeroext i1 @zend_string_equals(ptr noundef %40, ptr noundef %43)
  br i1 %44, label %45, label %105

45:                                               ; preds = %37
  %46 = load ptr, ptr %13, align 8, !tbaa !19
  %47 = getelementptr inbounds nuw %struct.php_url, ptr %46, i32 0, i32 3
  %48 = load ptr, ptr %47, align 8, !tbaa !41
  %49 = icmp ne ptr %48, null
  br i1 %49, label %50, label %105

50:                                               ; preds = %45
  %51 = load ptr, ptr %14, align 8, !tbaa !19
  %52 = getelementptr inbounds nuw %struct.php_url, ptr %51, i32 0, i32 3
  %53 = load ptr, ptr %52, align 8, !tbaa !41
  %54 = icmp ne ptr %53, null
  br i1 %54, label %55, label %105

55:                                               ; preds = %50
  %56 = load ptr, ptr %13, align 8, !tbaa !19
  %57 = getelementptr inbounds nuw %struct.php_url, ptr %56, i32 0, i32 3
  %58 = load ptr, ptr %57, align 8, !tbaa !41
  %59 = load ptr, ptr %14, align 8, !tbaa !19
  %60 = getelementptr inbounds nuw %struct.php_url, ptr %59, i32 0, i32 3
  %61 = load ptr, ptr %60, align 8, !tbaa !41
  %62 = call zeroext i1 @zend_string_equals(ptr noundef %58, ptr noundef %61)
  br i1 %62, label %63, label %105

63:                                               ; preds = %55
  %64 = load ptr, ptr %13, align 8, !tbaa !19
  %65 = getelementptr inbounds nuw %struct.php_url, ptr %64, i32 0, i32 4
  %66 = load i16, ptr %65, align 8, !tbaa !62
  %67 = zext i16 %66 to i32
  %68 = load ptr, ptr %14, align 8, !tbaa !19
  %69 = getelementptr inbounds nuw %struct.php_url, ptr %68, i32 0, i32 4
  %70 = load i16, ptr %69, align 8, !tbaa !62
  %71 = zext i16 %70 to i32
  %72 = icmp ne i32 %67, %71
  br i1 %72, label %73, label %95

73:                                               ; preds = %63
  %74 = load ptr, ptr %13, align 8, !tbaa !19
  %75 = getelementptr inbounds nuw %struct.php_url, ptr %74, i32 0, i32 4
  %76 = load i16, ptr %75, align 8, !tbaa !62
  %77 = zext i16 %76 to i32
  %78 = load ptr, ptr %14, align 8, !tbaa !19
  %79 = getelementptr inbounds nuw %struct.php_url, ptr %78, i32 0, i32 4
  %80 = load i16, ptr %79, align 8, !tbaa !62
  %81 = zext i16 %80 to i32
  %82 = mul nsw i32 %77, %81
  %83 = icmp ne i32 %82, 0
  br i1 %83, label %84, label %95

84:                                               ; preds = %73
  %85 = load ptr, ptr %13, align 8, !tbaa !19
  %86 = getelementptr inbounds nuw %struct.php_url, ptr %85, i32 0, i32 4
  %87 = load i16, ptr %86, align 8, !tbaa !62
  %88 = zext i16 %87 to i32
  %89 = load ptr, ptr %14, align 8, !tbaa !19
  %90 = getelementptr inbounds nuw %struct.php_url, ptr %89, i32 0, i32 4
  %91 = load i16, ptr %90, align 8, !tbaa !62
  %92 = zext i16 %91 to i32
  %93 = add nsw i32 %88, %92
  %94 = icmp ne i32 %93, 21
  br i1 %94, label %105, label %95

95:                                               ; preds = %84, %73, %63
  %96 = load ptr, ptr %13, align 8, !tbaa !19
  %97 = getelementptr inbounds nuw %struct.php_url, ptr %96, i32 0, i32 5
  %98 = load ptr, ptr %97, align 8, !tbaa !30
  %99 = icmp ne ptr %98, null
  br i1 %99, label %100, label %105

100:                                              ; preds = %95
  %101 = load ptr, ptr %14, align 8, !tbaa !19
  %102 = getelementptr inbounds nuw %struct.php_url, ptr %101, i32 0, i32 5
  %103 = load ptr, ptr %102, align 8, !tbaa !30
  %104 = icmp ne ptr %103, null
  br i1 %104, label %106, label %105

105:                                              ; preds = %100, %95, %84, %55, %50, %45, %37, %32, %27, %24, %5
  br label %175

106:                                              ; preds = %100
  %107 = load ptr, ptr %7, align 8, !tbaa !4
  %108 = load ptr, ptr %8, align 8, !tbaa !9
  %109 = load ptr, ptr %11, align 8, !tbaa !15
  %110 = call ptr @php_ftp_fopen_connect(ptr noundef %107, ptr noundef %108, ptr noundef @.str.39, i32 noundef 0, ptr noundef null, ptr noundef %109, ptr noundef null, ptr noundef null, ptr noundef null, ptr noundef null)
  store ptr %110, ptr %12, align 8, !tbaa !17
  %111 = load ptr, ptr %12, align 8, !tbaa !17
  %112 = icmp ne ptr %111, null
  br i1 %112, label %124, label %113

113:                                              ; preds = %106
  %114 = load i32, ptr %10, align 4, !tbaa !11
  %115 = and i32 %114, 8
  %116 = icmp ne i32 %115, 0
  br i1 %116, label %117, label %123

117:                                              ; preds = %113
  %118 = load ptr, ptr %13, align 8, !tbaa !19
  %119 = getelementptr inbounds nuw %struct.php_url, ptr %118, i32 0, i32 3
  %120 = load ptr, ptr %119, align 8, !tbaa !41
  %121 = getelementptr inbounds nuw %struct._zend_string, ptr %120, i32 0, i32 3
  %122 = getelementptr inbounds [1 x i8], ptr %121, i64 0, i64 0
  call void (ptr, i32, ptr, ...) @php_error_docref(ptr noundef null, i32 noundef 2, ptr noundef @.str.46, ptr noundef %122)
  br label %123

123:                                              ; preds = %117, %113
  br label %175

124:                                              ; preds = %106
  %125 = load ptr, ptr %12, align 8, !tbaa !17
  %126 = load ptr, ptr %13, align 8, !tbaa !19
  %127 = getelementptr inbounds nuw %struct.php_url, ptr %126, i32 0, i32 5
  %128 = load ptr, ptr %127, align 8, !tbaa !30
  %129 = getelementptr inbounds nuw %struct._zend_string, ptr %128, i32 0, i32 3
  %130 = getelementptr inbounds [1 x i8], ptr %129, i64 0, i64 0
  %131 = call i64 (ptr, ptr, ...) @_php_stream_printf(ptr noundef %125, ptr noundef @.str.49, ptr noundef %130)
  %132 = load ptr, ptr %12, align 8, !tbaa !17
  %133 = getelementptr inbounds [512 x i8], ptr %16, i64 0, i64 0
  %134 = call i32 @get_ftp_result(ptr noundef %132, ptr noundef %133, i64 noundef 512)
  store i32 %134, ptr %15, align 4, !tbaa !11
  %135 = load i32, ptr %15, align 4, !tbaa !11
  %136 = icmp slt i32 %135, 300
  br i1 %136, label %140, label %137

137:                                              ; preds = %124
  %138 = load i32, ptr %15, align 4, !tbaa !11
  %139 = icmp sgt i32 %138, 399
  br i1 %139, label %140, label %147

140:                                              ; preds = %137, %124
  %141 = load i32, ptr %10, align 4, !tbaa !11
  %142 = and i32 %141, 8
  %143 = icmp ne i32 %142, 0
  br i1 %143, label %144, label %146

144:                                              ; preds = %140
  %145 = getelementptr inbounds [512 x i8], ptr %16, i64 0, i64 0
  call void (ptr, i32, ptr, ...) @php_error_docref(ptr noundef null, i32 noundef 2, ptr noundef @.str.50, ptr noundef %145)
  br label %146

146:                                              ; preds = %144, %140
  br label %175

147:                                              ; preds = %137
  %148 = load ptr, ptr %12, align 8, !tbaa !17
  %149 = load ptr, ptr %14, align 8, !tbaa !19
  %150 = getelementptr inbounds nuw %struct.php_url, ptr %149, i32 0, i32 5
  %151 = load ptr, ptr %150, align 8, !tbaa !30
  %152 = getelementptr inbounds nuw %struct._zend_string, ptr %151, i32 0, i32 3
  %153 = getelementptr inbounds [1 x i8], ptr %152, i64 0, i64 0
  %154 = call i64 (ptr, ptr, ...) @_php_stream_printf(ptr noundef %148, ptr noundef @.str.51, ptr noundef %153)
  %155 = load ptr, ptr %12, align 8, !tbaa !17
  %156 = getelementptr inbounds [512 x i8], ptr %16, i64 0, i64 0
  %157 = call i32 @get_ftp_result(ptr noundef %155, ptr noundef %156, i64 noundef 512)
  store i32 %157, ptr %15, align 4, !tbaa !11
  %158 = load i32, ptr %15, align 4, !tbaa !11
  %159 = icmp slt i32 %158, 200
  br i1 %159, label %163, label %160

160:                                              ; preds = %147
  %161 = load i32, ptr %15, align 4, !tbaa !11
  %162 = icmp sgt i32 %161, 299
  br i1 %162, label %163, label %170

163:                                              ; preds = %160, %147
  %164 = load i32, ptr %10, align 4, !tbaa !11
  %165 = and i32 %164, 8
  %166 = icmp ne i32 %165, 0
  br i1 %166, label %167, label %169

167:                                              ; preds = %163
  %168 = getelementptr inbounds [512 x i8], ptr %16, i64 0, i64 0
  call void (ptr, i32, ptr, ...) @php_error_docref(ptr noundef null, i32 noundef 2, ptr noundef @.str.50, ptr noundef %168)
  br label %169

169:                                              ; preds = %167, %163
  br label %175

170:                                              ; preds = %160
  %171 = load ptr, ptr %13, align 8, !tbaa !19
  call void @php_url_free(ptr noundef %171)
  %172 = load ptr, ptr %14, align 8, !tbaa !19
  call void @php_url_free(ptr noundef %172)
  %173 = load ptr, ptr %12, align 8, !tbaa !17
  %174 = call i32 @_php_stream_free(ptr noundef %173, i32 noundef 3)
  store i32 1, ptr %6, align 4
  store i32 1, ptr %17, align 4
  br label %192

175:                                              ; preds = %169, %146, %123, %105
  %176 = load ptr, ptr %13, align 8, !tbaa !19
  %177 = icmp ne ptr %176, null
  br i1 %177, label %178, label %180

178:                                              ; preds = %175
  %179 = load ptr, ptr %13, align 8, !tbaa !19
  call void @php_url_free(ptr noundef %179)
  br label %180

180:                                              ; preds = %178, %175
  %181 = load ptr, ptr %14, align 8, !tbaa !19
  %182 = icmp ne ptr %181, null
  br i1 %182, label %183, label %185

183:                                              ; preds = %180
  %184 = load ptr, ptr %14, align 8, !tbaa !19
  call void @php_url_free(ptr noundef %184)
  br label %185

185:                                              ; preds = %183, %180
  %186 = load ptr, ptr %12, align 8, !tbaa !17
  %187 = icmp ne ptr %186, null
  br i1 %187, label %188, label %191

188:                                              ; preds = %185
  %189 = load ptr, ptr %12, align 8, !tbaa !17
  %190 = call i32 @_php_stream_free(ptr noundef %189, i32 noundef 3)
  br label %191

191:                                              ; preds = %188, %185
  store i32 0, ptr %6, align 4
  store i32 1, ptr %17, align 4
  br label %192

192:                                              ; preds = %191, %170
  call void @llvm.lifetime.end.p0(i64 512, ptr %16) #11
  call void @llvm.lifetime.end.p0(i64 4, ptr %15) #11
  call void @llvm.lifetime.end.p0(i64 8, ptr %14) #11
  call void @llvm.lifetime.end.p0(i64 8, ptr %13) #11
  call void @llvm.lifetime.end.p0(i64 8, ptr %12) #11
  %193 = load i32, ptr %6, align 4
  ret i32 %193
}