; Function Attrs: nounwind uwtable
define internal range(i32 0, 2) i32 @php_stream_ftp_rename(ptr noundef %0, ptr noundef %1, ptr noundef %2, i32 noundef %3, ptr noundef %4) #0 {
  %6 = alloca [512 x i8], align 16
  call void @llvm.lifetime.start.p0(i64 512, ptr nonnull %6) #15
  %7 = tail call ptr @php_url_parse(ptr noundef %1) #15
  %8 = tail call ptr @php_url_parse(ptr noundef %2) #15
  %9 = icmp ne ptr %7, null
  %10 = icmp ne ptr %8, null
  %or.cond = select i1 %9, i1 %10, i1 false
  br i1 %or.cond, label %11, label %78

11:                                               ; preds = %5
  %12 = load ptr, ptr %7, align 8, !tbaa !44
  %.not = icmp eq ptr %12, null
  br i1 %.not, label %.thread, label %13

13:                                               ; preds = %11
  %14 = load ptr, ptr %8, align 8, !tbaa !44
  %.not64 = icmp eq ptr %14, null
  br i1 %.not64, label %.thread, label %15

15:                                               ; preds = %13
  %16 = icmp eq ptr %12, %14
  br i1 %16, label %zend_string_equals.exit.thread, label %17

17:                                               ; preds = %15
  %18 = getelementptr inbounds nuw i8, ptr %12, i64 16
  %19 = load i64, ptr %18, align 8, !tbaa !45
  %20 = getelementptr inbounds nuw i8, ptr %14, i64 16
  %21 = load i64, ptr %20, align 8, !tbaa !45
  %22 = icmp eq i64 %19, %21
  br i1 %22, label %zend_string_equals.exit, label %.thread

zend_string_equals.exit:                          ; preds = %17
  %23 = tail call zeroext i1 @zend_string_equal_val(ptr noundef nonnull %12, ptr noundef nonnull %14) #15
  br i1 %23, label %zend_string_equals.exit.thread, label %.thread

zend_string_equals.exit.thread:                   ; preds = %15, %zend_string_equals.exit
  %24 = getelementptr inbounds nuw i8, ptr %7, i64 24
  %25 = load ptr, ptr %24, align 8, !tbaa !29
  %.not65 = icmp eq ptr %25, null
  br i1 %.not65, label %.thread, label %26

26:                                               ; preds = %zend_string_equals.exit.thread
  %27 = getelementptr inbounds nuw i8, ptr %8, i64 24
  %28 = load ptr, ptr %27, align 8, !tbaa !29
  %.not66 = icmp eq ptr %28, null
  br i1 %.not66, label %.thread, label %29

29:                                               ; preds = %26
  %30 = icmp eq ptr %25, %28
  br i1 %30, label %zend_string_equals.exit79.thread, label %31

31:                                               ; preds = %29
  %32 = getelementptr inbounds nuw i8, ptr %25, i64 16
  %33 = load i64, ptr %32, align 8, !tbaa !45
  %34 = getelementptr inbounds nuw i8, ptr %28, i64 16
  %35 = load i64, ptr %34, align 8, !tbaa !45
  %36 = icmp eq i64 %33, %35
  br i1 %36, label %zend_string_equals.exit79, label %.thread

zend_string_equals.exit79:                        ; preds = %31
  %37 = tail call zeroext i1 @zend_string_equal_val(ptr noundef nonnull %25, ptr noundef nonnull %28) #15
  br i1 %37, label %zend_string_equals.exit79.thread, label %.thread

zend_string_equals.exit79.thread:                 ; preds = %29, %zend_string_equals.exit79
  %38 = getelementptr inbounds nuw i8, ptr %7, i64 32
  %39 = load i16, ptr %38, align 8, !tbaa !47
  %40 = zext i16 %39 to i32
  %41 = getelementptr inbounds nuw i8, ptr %8, i64 32
  %42 = load i16, ptr %41, align 8, !tbaa !47
  %43 = zext i16 %42 to i32
  %.not67 = icmp eq i16 %39, %42
  %44 = mul nuw nsw i32 %43, %40
  %.not68 = icmp eq i32 %44, 0
  %or.cond77 = select i1 %.not67, i1 true, i1 %.not68
  %45 = add nuw nsw i32 %43, %40
  %.not69 = icmp eq i32 %45, 21
  %or.cond78 = select i1 %or.cond77, i1 true, i1 %.not69
  br i1 %or.cond78, label %46, label %.thread

46:                                               ; preds = %zend_string_equals.exit79.thread
  %47 = getelementptr inbounds nuw i8, ptr %7, i64 40
  %48 = load ptr, ptr %47, align 8, !tbaa !22
  %.not70 = icmp eq ptr %48, null
  br i1 %.not70, label %.thread, label %49

49:                                               ; preds = %46
  %50 = getelementptr inbounds nuw i8, ptr %8, i64 40
  %51 = load ptr, ptr %50, align 8, !tbaa !22
  %.not71 = icmp eq ptr %51, null
  br i1 %.not71, label %.thread, label %52

52:                                               ; preds = %49
  %53 = tail call fastcc ptr @php_ftp_fopen_connect(ptr noundef %0, ptr noundef %1, i32 noundef 0, ptr noundef %4, ptr noundef null, ptr noundef null, ptr noundef null, ptr noundef null)
  %.not72 = icmp eq ptr %53, null
  br i1 %.not72, label %54, label %59

54:                                               ; preds = %52
  %55 = and i32 %3, 8
  %.not73 = icmp eq i32 %55, 0
  br i1 %.not73, label %.thread, label %56

56:                                               ; preds = %54
  %57 = load ptr, ptr %24, align 8, !tbaa !29
  %58 = getelementptr inbounds nuw i8, ptr %57, i64 24
  tail call void (ptr, i32, ptr, ...) @php_error_docref(ptr noundef null, i32 noundef 2, ptr noundef nonnull @.str.46, ptr noundef nonnull %58) #15
  br label %.thread

59:                                               ; preds = %52
  %60 = load ptr, ptr %47, align 8, !tbaa !22
  %61 = getelementptr inbounds nuw i8, ptr %60, i64 24
  %62 = tail call i64 (ptr, ptr, ...) @_php_stream_printf(ptr noundef nonnull %53, ptr noundef nonnull @.str.49, ptr noundef nonnull %61) #15
  %63 = call fastcc i32 @get_ftp_result(ptr noundef %53, ptr noundef %6)
  %64 = add i32 %63, -400
  %or.cond3 = icmp ult i32 %64, -100
  br i1 %or.cond3, label %65, label %68

65:                                               ; preds = %59
  %66 = and i32 %3, 8
  %.not75 = icmp eq i32 %66, 0
  br i1 %.not75, label %.thread, label %67

67:                                               ; preds = %65
  call void (ptr, i32, ptr, ...) @php_error_docref(ptr noundef null, i32 noundef 2, ptr noundef nonnull @.str.50, ptr noundef nonnull %6) #15
  br label %.thread

68:                                               ; preds = %59
  %69 = load ptr, ptr %50, align 8, !tbaa !22
  %70 = getelementptr inbounds nuw i8, ptr %69, i64 24
  %71 = call i64 (ptr, ptr, ...) @_php_stream_printf(ptr noundef nonnull %53, ptr noundef nonnull @.str.51, ptr noundef nonnull %70) #15
  %72 = call fastcc i32 @get_ftp_result(ptr noundef %53, ptr noundef %6)
  %73 = add i32 %72, -300
  %or.cond5 = icmp ult i32 %73, -100
  br i1 %or.cond5, label %74, label %77

74:                                               ; preds = %68
  %75 = and i32 %3, 8
  %.not74 = icmp eq i32 %75, 0
  br i1 %.not74, label %.thread, label %76

76:                                               ; preds = %74
  call void (ptr, i32, ptr, ...) @php_error_docref(ptr noundef null, i32 noundef 2, ptr noundef nonnull @.str.50, ptr noundef nonnull %6) #15
  br label %.thread

77:                                               ; preds = %68
  call void @php_url_free(ptr noundef nonnull %7) #15
  call void @php_url_free(ptr noundef nonnull %8) #15
  br label %.sink.split

78:                                               ; preds = %5
  br i1 %9, label %.thread, label %79

.thread:                                          ; preds = %31, %17, %49, %46, %zend_string_equals.exit79, %26, %zend_string_equals.exit.thread, %zend_string_equals.exit, %13, %11, %56, %54, %67, %65, %76, %74, %zend_string_equals.exit79.thread, %78
  %.085 = phi ptr [ null, %78 ], [ null, %zend_string_equals.exit79.thread ], [ null, %11 ], [ null, %13 ], [ null, %zend_string_equals.exit ], [ null, %zend_string_equals.exit.thread ], [ null, %26 ], [ null, %zend_string_equals.exit79 ], [ null, %46 ], [ null, %49 ], [ null, %54 ], [ null, %56 ], [ %53, %74 ], [ %53, %76 ], [ %53, %65 ], [ %53, %67 ], [ null, %17 ], [ null, %31 ]
  call void @php_url_free(ptr noundef nonnull %7) #15
  br label %79

79:                                               ; preds = %.thread, %78
  %.084 = phi ptr [ %.085, %.thread ], [ null, %78 ]
  br i1 %10, label %80, label %81

80:                                               ; preds = %79
  call void @php_url_free(ptr noundef nonnull %8) #15
  br label %81

81:                                               ; preds = %80, %79
  %.not76 = icmp eq ptr %.084, null
  br i1 %.not76, label %83, label %.sink.split

.sink.split:                                      ; preds = %81, %77
  %.084.sink = phi ptr [ %53, %77 ], [ %.084, %81 ]
  %.052.ph = phi i32 [ 1, %77 ], [ 0, %81 ]
  %82 = call i32 @_php_stream_free(ptr noundef nonnull %.084.sink, i32 noundef 3) #15
  br label %83

83:                                               ; preds = %.sink.split, %81
  %.052 = phi i32 [ 0, %81 ], [ %.052.ph, %.sink.split ]
  call void @llvm.lifetime.end.p0(i64 512, ptr nonnull %6) #15
  ret i32 %.052
}